target datalayout = "e-m:e-p270:32:32-p271:32:32-p272:64:64-i64:64-i128:128-f80:128-n8:16:32:64-S128"
target triple = "x86_64-pc-linux-gnu"

%struct.AVFilterContext = type { ptr, ptr, ptr, ptr, ptr, i32, ptr, ptr, i32, ptr, ptr, i32, i32, ptr, ptr, ptr, ptr, i32, ptr, i32, i32 }
%struct.AudioSurroundContext = type { ptr, %struct.AVChannelLayout, %struct.AVChannelLayout, float, float, [9 x float], [9 x float], i32, float, float, float, i32, i32, float, float, float, float, [9 x float], [9 x float], ptr, ptr, i32, i32, i32, i32, float, float, i32, i32, ptr, ptr, ptr, ptr, ptr, ptr, ptr, ptr, ptr, ptr, ptr, ptr, ptr, ptr, ptr, ptr, ptr, ptr, ptr, i32, i32, ptr, ptr, ptr, ptr, ptr, ptr, ptr, ptr, ptr }
%struct.AVChannelLayout = type { i32, i32, %union.anon.1, ptr }
%union.anon.1 = type { i64 }
%struct.AVFilterFormatsConfig = type { ptr, ptr, ptr, ptr, ptr }
%struct.AVFilterLink = type { ptr, ptr, ptr, ptr, i32, i32, i32, i32, %struct.AVRational, i32, i32, i32, %struct.AVChannelLayout, %struct.AVRational, ptr, i32, %struct.AVFilterFormatsConfig, %struct.AVFilterFormatsConfig }
%struct.AVRational = type { i32, i32 }

@ch_map = internal constant [9 x i32] [i32 0, i32 1, i32 2, i32 3, i32 4, i32 5, i32 8, i32 9, i32 10], align 16

; Function Attrs: nounwind uwtable
define internal void @set_input_levels(ptr noundef %0) #1 {
  %2 = alloca ptr, align 8
  %3 = alloca ptr, align 8
  %4 = alloca i32, align 4
  %5 = alloca i32, align 4
  %6 = alloca i32, align 4
  store ptr %0, ptr %2, align 8, !tbaa !4
  call void @llvm.lifetime.start.p0(i64 8, ptr %3) #12
  %7 = load ptr, ptr %2, align 8, !tbaa !4
  %8 = getelementptr inbounds nuw %struct.AVFilterContext, ptr %7, i32 0, i32 9
  %9 = load ptr, ptr %8, align 8, !tbaa !9
  store ptr %9, ptr %3, align 8, !tbaa !22
  call void @llvm.lifetime.start.p0(i64 4, ptr %4) #12
  store i32 0, ptr %4, align 4, !tbaa !47
  br label %10

10:                                               ; preds = %34, %1
  %11 = load i32, ptr %4, align 4, !tbaa !47
  %12 = load ptr, ptr %3, align 8, !tbaa !22
  %13 = getelementptr inbounds nuw %struct.AudioSurroundContext, ptr %12, i32 0, i32 27
  %14 = load i32, ptr %13, align 8, !tbaa !56
  %15 = icmp slt i32 %11, %14
  br i1 %15, label %16, label %21

16:                                               ; preds = %10
  %17 = load ptr, ptr %3, align 8, !tbaa !22
  %18 = getelementptr inbounds nuw %struct.AudioSurroundContext, ptr %17, i32 0, i32 3
  %19 = load float, ptr %18, align 8, !tbaa !89
  %20 = fcmp nsz oge float %19, 0.000000e+00
  br label %21

21:                                               ; preds = %16, %10
  %22 = phi i1 [ false, %10 ], [ %20, %16 ]
  br i1 %22, label %24, label %23

23:                                               ; preds = %21
  call void @llvm.lifetime.end.p0(i64 4, ptr %4) #12
  br label %37

24:                                               ; preds = %21
  %25 = load ptr, ptr %3, align 8, !tbaa !22
  %26 = getelementptr inbounds nuw %struct.AudioSurroundContext, ptr %25, i32 0, i32 3
  %27 = load float, ptr %26, align 8, !tbaa !89
  %28 = load ptr, ptr %3, align 8, !tbaa !22
  %29 = getelementptr inbounds nuw %struct.AudioSurroundContext, ptr %28, i32 0, i32 19
  %30 = load ptr, ptr %29, align 8, !tbaa !82
  %31 = load i32, ptr %4, align 4, !tbaa !47
  %32 = sext i32 %31 to i64
  %33 = getelementptr inbounds float, ptr %30, i64 %32
  store float %27, ptr %33, align 4, !tbaa !46
  br label %34

34:                                               ; preds = %24
  %35 = load i32, ptr %4, align 4, !tbaa !47
  %36 = add nsw i32 %35, 1
  store i32 %36, ptr %4, align 4, !tbaa !47
  br label %10, !llvm.loop !90

37:                                               ; preds = %23
  %38 = load ptr, ptr %3, align 8, !tbaa !22
  %39 = getelementptr inbounds nuw %struct.AudioSurroundContext, ptr %38, i32 0, i32 3
  store float -1.000000e+00, ptr %39, align 8, !tbaa !89
  call void @llvm.lifetime.start.p0(i64 4, ptr %5) #12
  store i32 0, ptr %5, align 4, !tbaa !47
  br label %40

40:                                               ; preds = %68, %37
  %41 = load i32, ptr %5, align 4, !tbaa !47
  %42 = icmp slt i32 %41, 9
  br i1 %42, label %44, label %43

43:                                               ; preds = %40
  call void @llvm.lifetime.end.p0(i64 4, ptr %5) #12
  br label %71

44:                                               ; preds = %40
  call void @llvm.lifetime.start.p0(i64 4, ptr %6) #12
  %45 = load ptr, ptr %3, align 8, !tbaa !22
  %46 = getelementptr inbounds nuw %struct.AudioSurroundContext, ptr %45, i32 0, i32 2
  %47 = load i32, ptr %5, align 4, !tbaa !47
  %48 = sext i32 %47 to i64
  %49 = getelementptr inbounds [9 x i32], ptr @ch_map, i64 0, i64 %48
  %50 = load i32, ptr %49, align 4, !tbaa !47
  %51 = call i32 @av_channel_layout_index_from_channel(ptr noundef %46, i32 noundef %50)
  store i32 %51, ptr %6, align 4, !tbaa !47
  %52 = load i32, ptr %6, align 4, !tbaa !47
  %53 = icmp sge i32 %52, 0
  br i1 %53, label %54, label %67

54:                                               ; preds = %44
  %55 = load ptr, ptr %3, align 8, !tbaa !22
  %56 = getelementptr inbounds nuw %struct.AudioSurroundContext, ptr %55, i32 0, i32 5
  %57 = load i32, ptr %5, align 4, !tbaa !47
  %58 = sext i32 %57 to i64
  %59 = getelementptr inbounds [9 x float], ptr %56, i64 0, i64 %58
  %60 = load float, ptr %59, align 4, !tbaa !46
  %61 = load ptr, ptr %3, align 8, !tbaa !22
  %62 = getelementptr inbounds nuw %struct.AudioSurroundContext, ptr %61, i32 0, i32 19
  %63 = load ptr, ptr %62, align 8, !tbaa !82
  %64 = load i32, ptr %6, align 4, !tbaa !47
  %65 = sext i32 %64 to i64
  %66 = getelementptr inbounds float, ptr %63, i64 %65
  store float %60, ptr %66, align 4, !tbaa !46
  br label %67

67:                                               ; preds = %54, %44
  call void @llvm.lifetime.end.p0(i64 4, ptr %6) #12
  br label %68

68:                                               ; preds = %67
  %69 = load i32, ptr %5, align 4, !tbaa !47
  %70 = add nsw i32 %69, 1
  store i32 %70, ptr %5, align 4, !tbaa !47
  br label %40, !llvm.loop !91

71:                                               ; preds = %43
  call void @llvm.lifetime.end.p0(i64 8, ptr %3) #12
  ret void
}

; Function Attrs: nounwind uwtable
define internal i32 @config_input(ptr noundef %0) #1 {
  %2 = alloca i32, align 4
  %3 = alloca ptr, align 8
  %4 = alloca ptr, align 8
  %5 = alloca ptr, align 8
  %6 = alloca i32, align 4
  %7 = alloca i32, align 4
  %8 = alloca i32, align 4
  %9 = alloca float, align 4
  store ptr %0, ptr %3, align 8, !tbaa !70
  call void @llvm.lifetime.start.p0(i64 8, ptr %4) #12
  %10 = load ptr, ptr %3, align 8, !tbaa !70
  %11 = getelementptr inbounds nuw %struct.AVFilterLink, ptr %10, i32 0, i32 2
  %12 = load ptr, ptr %11, align 8, !tbaa !74
  store ptr %12, ptr %4, align 8, !tbaa !4
  call void @llvm.lifetime.start.p0(i64 8, ptr %5) #12
  %13 = load ptr, ptr %4, align 8, !tbaa !4
  %14 = getelementptr inbounds nuw %struct.AVFilterContext, ptr %13, i32 0, i32 9
  %15 = load ptr, ptr %14, align 8, !tbaa !9
  store ptr %15, ptr %5, align 8, !tbaa !22
  call void @llvm.lifetime.start.p0(i64 4, ptr %6) #12
  %16 = load ptr, ptr %3, align 8, !tbaa !70
  %17 = getelementptr inbounds nuw %struct.AVFilterLink, ptr %16, i32 0, i32 12
  %18 = getelementptr inbounds nuw %struct.AVChannelLayout, ptr %17, i32 0, i32 1
  %19 = load i32, ptr %18, align 4, !tbaa !80
  %20 = sext i32 %19 to i64
  %21 = call noalias ptr @av_calloc(i64 noundef %20, i64 noundef 8)
  %22 = load ptr, ptr %5, align 8, !tbaa !22
  %23 = getelementptr inbounds nuw %struct.AudioSurroundContext, ptr %22, i32 0, i32 50
  store ptr %21, ptr %23, align 8, !tbaa !57
  %24 = load ptr, ptr %5, align 8, !tbaa !22
  %25 = getelementptr inbounds nuw %struct.AudioSurroundContext, ptr %24, i32 0, i32 50
  %26 = load ptr, ptr %25, align 8, !tbaa !57
  %27 = icmp ne ptr %26, null
  br i1 %27, label %29, label %28

28:                                               ; preds = %1
  store i32 -12, ptr %2, align 4
  store i32 1, ptr %7, align 4
  br label %169

29:                                               ; preds = %1
  %30 = load ptr, ptr %3, align 8, !tbaa !70
  %31 = getelementptr inbounds nuw %struct.AVFilterLink, ptr %30, i32 0, i32 12
  %32 = getelementptr inbounds nuw %struct.AVChannelLayout, ptr %31, i32 0, i32 1
  %33 = load i32, ptr %32, align 4, !tbaa !80
  %34 = load ptr, ptr %5, align 8, !tbaa !22
  %35 = getelementptr inbounds nuw %struct.AudioSurroundContext, ptr %34, i32 0, i32 27
  store i32 %33, ptr %35, align 8, !tbaa !56
  call void @llvm.lifetime.start.p0(i64 4, ptr %8) #12
  store i32 0, ptr %8, align 4, !tbaa !47
  br label %36

36:                                               ; preds = %65, %29
  %37 = load i32, ptr %8, align 4, !tbaa !47
  %38 = load ptr, ptr %3, align 8, !tbaa !70
  %39 = getelementptr inbounds nuw %struct.AVFilterLink, ptr %38, i32 0, i32 12
  %40 = getelementptr inbounds nuw %struct.AVChannelLayout, ptr %39, i32 0, i32 1
  %41 = load i32, ptr %40, align 4, !tbaa !80
  %42 = icmp slt i32 %37, %41
  br i1 %42, label %44, label %43

43:                                               ; preds = %36
  store i32 2, ptr %7, align 4
  br label %68

44:                                               ; preds = %36
  call void @llvm.lifetime.start.p0(i64 4, ptr %9) #12
  store float 1.000000e+00, ptr %9, align 4, !tbaa !46
  %45 = load ptr, ptr %5, align 8, !tbaa !22
  %46 = getelementptr inbounds nuw %struct.AudioSurroundContext, ptr %45, i32 0, i32 50
  %47 = load ptr, ptr %46, align 8, !tbaa !57
  %48 = load i32, ptr %8, align 4, !tbaa !47
  %49 = sext i32 %48 to i64
  %50 = getelementptr inbounds ptr, ptr %47, i64 %49
  %51 = load ptr, ptr %5, align 8, !tbaa !22
  %52 = getelementptr inbounds nuw %struct.AudioSurroundContext, ptr %51, i32 0, i32 52
  %53 = load ptr, ptr %5, align 8, !tbaa !22
  %54 = getelementptr inbounds nuw %struct.AudioSurroundContext, ptr %53, i32 0, i32 11
  %55 = load i32, ptr %54, align 8, !tbaa !42
  %56 = call i32 @av_tx_init(ptr noundef %50, ptr noundef %52, i32 noundef 6, i32 noundef 0, i32 noundef %55, ptr noundef %9, i64 noundef 0)
  store i32 %56, ptr %6, align 4, !tbaa !47
  %57 = load i32, ptr %6, align 4, !tbaa !47
  %58 = icmp slt i32 %57, 0
  br i1 %58, label %59, label %61

59:                                               ; preds = %44
  %60 = load i32, ptr %6, align 4, !tbaa !47
  store i32 %60, ptr %2, align 4
  store i32 1, ptr %7, align 4
  br label %62

61:                                               ; preds = %44
  store i32 0, ptr %7, align 4
  br label %62

62:                                               ; preds = %61, %59
  call void @llvm.lifetime.end.p0(i64 4, ptr %9) #12
  %63 = load i32, ptr %7, align 4
  switch i32 %63, label %68 [
    i32 0, label %64
  ]

64:                                               ; preds = %62
  br label %65

65:                                               ; preds = %64
  %66 = load i32, ptr %8, align 4, !tbaa !47
  %67 = add nsw i32 %66, 1
  store i32 %67, ptr %8, align 4, !tbaa !47
  br label %36, !llvm.loop !81

68:                                               ; preds = %62, %43
  call void @llvm.lifetime.end.p0(i64 4, ptr %8) #12
  %69 = load i32, ptr %7, align 4
  switch i32 %69, label %169 [
    i32 2, label %70
  ]

70:                                               ; preds = %68
  %71 = load ptr, ptr %5, align 8, !tbaa !22
  %72 = getelementptr inbounds nuw %struct.AudioSurroundContext, ptr %71, i32 0, i32 27
  %73 = load i32, ptr %72, align 8, !tbaa !56
  %74 = sext i32 %73 to i64
  %75 = call ptr @av_malloc_array(i64 noundef %74, i64 noundef 4)
  %76 = load ptr, ptr %5, align 8, !tbaa !22
  %77 = getelementptr inbounds nuw %struct.AudioSurroundContext, ptr %76, i32 0, i32 19
  store ptr %75, ptr %77, align 8, !tbaa !82
  %78 = load ptr, ptr %5, align 8, !tbaa !22
  %79 = getelementptr inbounds nuw %struct.AudioSurroundContext, ptr %78, i32 0, i32 19
  %80 = load ptr, ptr %79, align 8, !tbaa !82
  %81 = icmp ne ptr %80, null
  br i1 %81, label %83, label %82

82:                                               ; preds = %70
  store i32 -12, ptr %2, align 4
  store i32 1, ptr %7, align 4
  br label %169

83:                                               ; preds = %70
  %84 = load ptr, ptr %4, align 8, !tbaa !4
  call void @set_input_levels(ptr noundef %84)
  %85 = load ptr, ptr %3, align 8, !tbaa !70
  %86 = load ptr, ptr %5, align 8, !tbaa !22
  %87 = getelementptr inbounds nuw %struct.AudioSurroundContext, ptr %86, i32 0, i32 11
  %88 = load i32, ptr %87, align 8, !tbaa !42
  %89 = mul nsw i32 %88, 2
  %90 = call ptr @ff_get_audio_buffer(ptr noundef %85, i32 noundef %89)
  %91 = load ptr, ptr %5, align 8, !tbaa !22
  %92 = getelementptr inbounds nuw %struct.AudioSurroundContext, ptr %91, i32 0, i32 38
  store ptr %90, ptr %92, align 8, !tbaa !83
  %93 = load ptr, ptr %5, align 8, !tbaa !22
  %94 = getelementptr inbounds nuw %struct.AudioSurroundContext, ptr %93, i32 0, i32 38
  %95 = load ptr, ptr %94, align 8, !tbaa !83
  %96 = icmp ne ptr %95, null
  br i1 %96, label %98, label %97

97:                                               ; preds = %83
  store i32 -12, ptr %2, align 4
  store i32 1, ptr %7, align 4
  br label %169

98:                                               ; preds = %83
  %99 = load ptr, ptr %3, align 8, !tbaa !70
  %100 = load ptr, ptr %5, align 8, !tbaa !22
  %101 = getelementptr inbounds nuw %struct.AudioSurroundContext, ptr %100, i32 0, i32 11
  %102 = load i32, ptr %101, align 8, !tbaa !42
  %103 = mul nsw i32 %102, 2
  %104 = call ptr @ff_get_audio_buffer(ptr noundef %99, i32 noundef %103)
  %105 = load ptr, ptr %5, align 8, !tbaa !22
  %106 = getelementptr inbounds nuw %struct.AudioSurroundContext, ptr %105, i32 0, i32 31
  store ptr %104, ptr %106, align 8, !tbaa !84
  %107 = load ptr, ptr %5, align 8, !tbaa !22
  %108 = getelementptr inbounds nuw %struct.AudioSurroundContext, ptr %107, i32 0, i32 31
  %109 = load ptr, ptr %108, align 8, !tbaa !84
  %110 = icmp ne ptr %109, null
  br i1 %110, label %112, label %111

111:                                              ; preds = %98
  store i32 -12, ptr %2, align 4
  store i32 1, ptr %7, align 4
  br label %169

112:                                              ; preds = %98
  %113 = load ptr, ptr %3, align 8, !tbaa !70
  %114 = load ptr, ptr %5, align 8, !tbaa !22
  %115 = getelementptr inbounds nuw %struct.AudioSurroundContext, ptr %114, i32 0, i32 11
  %116 = load i32, ptr %115, align 8, !tbaa !42
  %117 = add nsw i32 %116, 2
  %118 = call ptr @ff_get_audio_buffer(ptr noundef %113, i32 noundef %117)
  %119 = load ptr, ptr %5, align 8, !tbaa !22
  %120 = getelementptr inbounds nuw %struct.AudioSurroundContext, ptr %119, i32 0, i32 32
  store ptr %118, ptr %120, align 8, !tbaa !85
  %121 = load ptr, ptr %5, align 8, !tbaa !22
  %122 = getelementptr inbounds nuw %struct.AudioSurroundContext, ptr %121, i32 0, i32 32
  %123 = load ptr, ptr %122, align 8, !tbaa !85
  %124 = icmp ne ptr %123, null
  br i1 %124, label %126, label %125

125:                                              ; preds = %112
  store i32 -12, ptr %2, align 4
  store i32 1, ptr %7, align 4
  br label %169

126:                                              ; preds = %112
  %127 = load ptr, ptr %5, align 8, !tbaa !22
  %128 = getelementptr inbounds nuw %struct.AudioSurroundContext, ptr %127, i32 0, i32 23
  %129 = load i32, ptr %128, align 8, !tbaa !24
  %130 = sitofp i32 %129 to float
  %131 = fmul nsz float 1.000000e+00, %130
  %132 = fpext nsz float %131 to double
  %133 = load ptr, ptr %3, align 8, !tbaa !70
  %134 = getelementptr inbounds nuw %struct.AVFilterLink, ptr %133, i32 0, i32 11
  %135 = load i32, ptr %134, align 8, !tbaa !86
  %136 = sitofp i32 %135 to double
  %137 = fmul nsz double %136, 5.000000e-01
  %138 = fdiv nsz double %132, %137
  %139 = load ptr, ptr %5, align 8, !tbaa !22
  %140 = getelementptr inbounds nuw %struct.AudioSurroundContext, ptr %139, i32 0, i32 11
  %141 = load i32, ptr %140, align 8, !tbaa !42
  %142 = sdiv i32 %141, 2
  %143 = sitofp i32 %142 to double
  %144 = fmul nsz double %138, %143
  %145 = fptrunc nsz double %144 to float
  %146 = load ptr, ptr %5, align 8, !tbaa !22
  %147 = getelementptr inbounds nuw %struct.AudioSurroundContext, ptr %146, i32 0, i32 25
  store float %145, ptr %147, align 8, !tbaa !87
  %148 = load ptr, ptr %5, align 8, !tbaa !22
  %149 = getelementptr inbounds nuw %struct.AudioSurroundContext, ptr %148, i32 0, i32 24
  %150 = load i32, ptr %149, align 4, !tbaa !31
  %151 = sitofp i32 %150 to float
  %152 = fmul nsz float 1.000000e+00, %151
  %153 = fpext nsz float %152 to double
  %154 = load ptr, ptr %3, align 8, !tbaa !70
  %155 = getelementptr inbounds nuw %struct.AVFilterLink, ptr %154, i32 0, i32 11
  %156 = load i32, ptr %155, align 8, !tbaa !86
  %157 = sitofp i32 %156 to double
  %158 = fmul nsz double %157, 5.000000e-01
  %159 = fdiv nsz double %153, %158
  %160 = load ptr, ptr %5, align 8, !tbaa !22
  %161 = getelementptr inbounds nuw %struct.AudioSurroundContext, ptr %160, i32 0, i32 11
  %162 = load i32, ptr %161, align 8, !tbaa !42
  %163 = sdiv i32 %162, 2
  %164 = sitofp i32 %163 to double
  %165 = fmul nsz double %159, %164
  %166 = fptrunc nsz double %165 to float
  %167 = load ptr, ptr %5, align 8, !tbaa !22
  %168 = getelementptr inbounds nuw %struct.AudioSurroundContext, ptr %167, i32 0, i32 26
  store float %166, ptr %168, align 4, !tbaa !88
  store i32 0, ptr %2, align 4
  store i32 1, ptr %7, align 4
  br label %169

169:                                              ; preds = %126, %125, %111, %97, %82, %68, %28
  call void @llvm.lifetime.end.p0(i64 4, ptr %6) #12
  call void @llvm.lifetime.end.p0(i64 8, ptr %5) #12
  call void @llvm.lifetime.end.p0(i64 8, ptr %4) #12
  %170 = load i32, ptr %2, align 4
  ret i32 %170
}