; Function Attrs: nounwind uwtable
define internal range(i32 -2147483648, 1) i32 @config_input(ptr noundef %0) #1 {
  %2 = alloca float, align 4
  %3 = getelementptr inbounds nuw i8, ptr %0, i64 16
  %4 = load ptr, ptr %3, align 8, !tbaa !97
  %5 = getelementptr inbounds nuw i8, ptr %4, i64 72
  %6 = load ptr, ptr %5, align 8, !tbaa !4
  %7 = getelementptr inbounds nuw i8, ptr %0, i64 76
  %8 = load i32, ptr %7, align 4, !tbaa !104
  %9 = sext i32 %8 to i64
  %10 = tail call noalias ptr @av_calloc(i64 noundef %9, i64 noundef 8) #14
  %11 = getelementptr inbounds nuw i8, ptr %6, i64 456
  store ptr %10, ptr %11, align 8, !tbaa !75
  %.not = icmp eq ptr %10, null
  br i1 %.not, label %.thread, label %12

12:                                               ; preds = %1
  %13 = load i32, ptr %7, align 4, !tbaa !104
  %14 = getelementptr inbounds nuw i8, ptr %6, i64 288
  store i32 %13, ptr %14, align 8, !tbaa !73
  %.not4753 = icmp sgt i32 %13, 0
  br i1 %.not4753, label %.lr.ph, label %._crit_edge

.lr.ph:                                           ; preds = %12
  %15 = getelementptr inbounds nuw i8, ptr %6, i64 472
  %16 = getelementptr inbounds nuw i8, ptr %6, i64 152
  br label %20

17:                                               ; preds = %20
  %indvars.iv.next = add nuw nsw i64 %indvars.iv, 1
  %18 = load i32, ptr %7, align 4, !tbaa !104
  %19 = sext i32 %18 to i64
  %.not47 = icmp slt i64 %indvars.iv.next, %19
  br i1 %.not47, label %20, label %._crit_edge.loopexit, !llvm.loop !112

20:                                               ; preds = %.lr.ph, %17
  %indvars.iv = phi i64 [ 0, %.lr.ph ], [ %indvars.iv.next, %17 ]
  call void @llvm.lifetime.start.p0(i64 4, ptr nonnull %2) #14
  store float 1.000000e+00, ptr %2, align 4, !tbaa !37
  %21 = load ptr, ptr %11, align 8, !tbaa !75
  %22 = getelementptr inbounds nuw ptr, ptr %21, i64 %indvars.iv
  %23 = load i32, ptr %16, align 8, !tbaa !34
  %24 = call i32 @av_tx_init(ptr noundef %22, ptr noundef nonnull %15, i32 noundef 6, i32 noundef 0, i32 noundef %23, ptr noundef nonnull %2, i64 noundef 0) #14
  %25 = icmp sgt i32 %24, -1
  call void @llvm.lifetime.end.p0(i64 4, ptr nonnull %2) #14
  br i1 %25, label %17, label %.thread

._crit_edge.loopexit:                             ; preds = %17
  %.pre = load i32, ptr %14, align 8, !tbaa !73
  br label %._crit_edge

._crit_edge:                                      ; preds = %._crit_edge.loopexit, %12
  %26 = phi i32 [ %.pre, %._crit_edge.loopexit ], [ %13, %12 ]
  %27 = sext i32 %26 to i64
  %28 = call ptr @av_malloc_array(i64 noundef %27, i64 noundef 4) #14
  %29 = getelementptr inbounds nuw i8, ptr %6, i64 248
  store ptr %28, ptr %29, align 8, !tbaa !84
  %.not48 = icmp eq ptr %28, null
  br i1 %.not48, label %.thread, label %30

30:                                               ; preds = %._crit_edge
  %.val = load ptr, ptr %5, align 8, !tbaa !4
  %31 = getelementptr inbounds nuw i8, ptr %.val, i64 56
  %32 = getelementptr inbounds nuw i8, ptr %.val, i64 288
  %33 = load i32, ptr %32, align 8, !tbaa !73
  %34 = icmp sgt i32 %33, 0
  br i1 %34, label %.lr.ph.i, label %.critedge.i

.lr.ph.i:                                         ; preds = %30
  %35 = getelementptr inbounds nuw i8, ptr %.val, i64 248
  %wide.trip.count.i = zext nneg i32 %33 to i64
  br label %36

36:                                               ; preds = %42, %.lr.ph.i
  %indvars.iv.i = phi i64 [ 0, %.lr.ph.i ], [ %indvars.iv.next.i, %42 ]
  %37 = load float, ptr %31, align 8, !tbaa !83
  %38 = fcmp nsz ult float %37, 0.000000e+00
  br i1 %38, label %.critedge.i, label %42

.critedge.i:                                      ; preds = %42, %36, %30
  store float -1.000000e+00, ptr %31, align 8, !tbaa !83
  %39 = getelementptr inbounds nuw i8, ptr %.val, i64 32
  %40 = getelementptr inbounds nuw i8, ptr %.val, i64 64
  %41 = getelementptr inbounds nuw i8, ptr %.val, i64 248
  br label %45

42:                                               ; preds = %36
  %43 = load ptr, ptr %35, align 8, !tbaa !84
  %44 = getelementptr inbounds nuw float, ptr %43, i64 %indvars.iv.i
  store float %37, ptr %44, align 4, !tbaa !37
  %indvars.iv.next.i = add nuw nsw i64 %indvars.iv.i, 1
  %exitcond.not.i = icmp eq i64 %indvars.iv.next.i, %wide.trip.count.i
  br i1 %exitcond.not.i, label %.critedge.i, label %36, !llvm.loop !85

45:                                               ; preds = %56, %.critedge.i
  %indvars.iv5.i = phi i64 [ 0, %.critedge.i ], [ %indvars.iv.next6.i, %56 ]
  %46 = getelementptr inbounds nuw [9 x i32], ptr @ch_map, i64 0, i64 %indvars.iv5.i
  %47 = load i32, ptr %46, align 4, !tbaa !86
  %48 = call i32 @av_channel_layout_index_from_channel(ptr noundef nonnull %39, i32 noundef %47) #14
  %49 = icmp sgt i32 %48, -1
  br i1 %49, label %50, label %56

50:                                               ; preds = %45
  %51 = getelementptr inbounds nuw [9 x float], ptr %40, i64 0, i64 %indvars.iv5.i
  %52 = load float, ptr %51, align 4, !tbaa !37
  %53 = load ptr, ptr %41, align 8, !tbaa !84
  %54 = zext nneg i32 %48 to i64
  %55 = getelementptr inbounds nuw float, ptr %53, i64 %54
  store float %52, ptr %55, align 4, !tbaa !37
  br label %56

56:                                               ; preds = %50, %45
  %indvars.iv.next6.i = add nuw nsw i64 %indvars.iv5.i, 1
  %exitcond8.not.i = icmp eq i64 %indvars.iv.next6.i, 9
  br i1 %exitcond8.not.i, label %set_input_levels.exit, label %45, !llvm.loop !87

set_input_levels.exit:                            ; preds = %56
  %57 = getelementptr inbounds nuw i8, ptr %6, i64 152
  %58 = load i32, ptr %57, align 8, !tbaa !34
  %59 = shl nsw i32 %58, 1
  %60 = call ptr @ff_get_audio_buffer(ptr noundef %0, i32 noundef %59) #14
  %61 = getelementptr inbounds nuw i8, ptr %6, i64 368
  store ptr %60, ptr %61, align 8, !tbaa !113
  %.not49 = icmp eq ptr %60, null
  br i1 %.not49, label %.thread, label %62

62:                                               ; preds = %set_input_levels.exit
  %63 = load i32, ptr %57, align 8, !tbaa !34
  %64 = shl nsw i32 %63, 1
  %65 = call ptr @ff_get_audio_buffer(ptr noundef %0, i32 noundef %64) #14
  %66 = getelementptr inbounds nuw i8, ptr %6, i64 312
  store ptr %65, ptr %66, align 8, !tbaa !114
  %.not50 = icmp eq ptr %65, null
  br i1 %.not50, label %.thread, label %67

67:                                               ; preds = %62
  %68 = load i32, ptr %57, align 8, !tbaa !34
  %69 = add nsw i32 %68, 2
  %70 = call ptr @ff_get_audio_buffer(ptr noundef %0, i32 noundef %69) #14
  %71 = getelementptr inbounds nuw i8, ptr %6, i64 320
  store ptr %70, ptr %71, align 8, !tbaa !115
  %.not51 = icmp eq ptr %70, null
  br i1 %.not51, label %.thread, label %72

72:                                               ; preds = %67
  %73 = getelementptr inbounds nuw i8, ptr %6, i64 272
  %74 = load i32, ptr %73, align 8, !tbaa !20
  %75 = sitofp i32 %74 to float
  %76 = fpext nsz float %75 to double
  %77 = getelementptr inbounds nuw i8, ptr %0, i64 64
  %78 = load i32, ptr %77, align 8, !tbaa !116
  %79 = sitofp i32 %78 to double
  %80 = fmul nsz double %79, 5.000000e-01
  %81 = fdiv nsz double %76, %80
  %82 = load i32, ptr %57, align 8, !tbaa !34
  %83 = sdiv i32 %82, 2
  %84 = sitofp i32 %83 to double
  %85 = fmul nsz double %81, %84
  %86 = fptrunc nsz double %85 to float
  %87 = getelementptr inbounds nuw i8, ptr %6, i64 280
  store float %86, ptr %87, align 8, !tbaa !117
  %88 = getelementptr inbounds nuw i8, ptr %6, i64 276
  %89 = load i32, ptr %88, align 4, !tbaa !27
  %90 = sitofp i32 %89 to float
  %91 = fpext nsz float %90 to double
  %92 = fdiv nsz double %91, %80
  %93 = fmul nsz double %92, %84
  %94 = fptrunc nsz double %93 to float
  %95 = getelementptr inbounds nuw i8, ptr %6, i64 284
  store float %94, ptr %95, align 4, !tbaa !118
  br label %.thread

.thread:                                          ; preds = %20, %67, %62, %set_input_levels.exit, %._crit_edge, %1, %72
  %.044 = phi i32 [ 0, %72 ], [ -12, %1 ], [ -12, %._crit_edge ], [ -12, %set_input_levels.exit ], [ -12, %62 ], [ -12, %67 ], [ %24, %20 ]
  ret i32 %.044
}